; Function Attrs: nounwind uwtable
define hidden noundef zeroext i1 @je_pa_shrink(ptr noundef %0, ptr noundef %1, ptr noundef %2, i64 noundef %3, i64 noundef %4, i32 noundef %5, ptr noundef %6) local_unnamed_addr #0 {
  %.val = load i64, ptr %2, align 8, !tbaa !59
  %8 = and i64 %.val, 65536
  %.not = icmp eq i64 %8, 0
  br i1 %.not, label %9, label %28

9:                                                ; preds = %7
  %10 = and i64 %.val, 16384
  %11 = icmp eq i64 %10, 0
  %.v.i = select i1 %11, i64 24, i64 62264
  %12 = getelementptr inbounds nuw i8, ptr %1, i64 %.v.i
  %13 = getelementptr inbounds nuw i8, ptr %12, i64 24
  %14 = load ptr, ptr %13, align 8, !tbaa !62
  %15 = tail call zeroext i1 %14(ptr noundef %0, ptr noundef nonnull %12, ptr noundef nonnull %2, i64 noundef %3, i64 noundef %4, ptr noundef %6) #4
  br i1 %15, label %28, label %16

16:                                               ; preds = %9
  %17 = sub i64 %3, %4
  %18 = lshr i64 %17, 12
  %19 = getelementptr inbounds nuw i8, ptr %1, i64 8
  %20 = atomicrmw sub ptr %19, i64 %18 monotonic, align 8
  %21 = load i64, ptr %2, align 8, !tbaa !59
  %22 = and i64 %21, -267386881
  %23 = zext i32 %5 to i64
  %24 = shl nuw nsw i64 %23, 20
  %25 = or i64 %22, %24
  store i64 %25, ptr %2, align 8, !tbaa !59
  %26 = getelementptr inbounds nuw i8, ptr %1, i64 68336
  %27 = load ptr, ptr %26, align 8, !tbaa !54
  tail call void @je_emap_remap(ptr noundef %0, ptr noundef %27, ptr noundef nonnull %2, i32 noundef %5, i1 noundef zeroext false) #4
  br label %28

28:                                               ; preds = %16, %9, %7
  %.0 = phi i1 [ true, %7 ], [ true, %9 ], [ false, %16 ]
  ret i1 %.0
}